; Function Attrs: mustprogress nounwind uwtable
define dso_local noundef ptr @_ZN4llvm19SanitizerStatReport22makeModuleStatsArrayTyEv(ptr nocapture noundef nonnull readonly align 8 dereferenceable(56) %0) local_unnamed_addr #0 align 2 {
  %2 = getelementptr inbounds nuw i8, ptr %0, i64 16
  %3 = load ptr, ptr %2, align 8
  %4 = getelementptr inbounds nuw i8, ptr %0, i64 32
  %5 = getelementptr inbounds i8, ptr %0, i64 40
  %6 = load ptr, ptr %5, align 8
  %7 = load ptr, ptr %4, align 8
  %8 = ptrtoint ptr %6 to i64
  %9 = ptrtoint ptr %7 to i64
  %10 = sub i64 %8, %9
  %11 = ashr exact i64 %10, 3
  %12 = tail call noundef ptr @_ZN4llvm9ArrayType3getEPNS_4TypeEm(ptr noundef %3, i64 noundef %11) #11
  ret ptr %12
}